; Function Attrs: nounwind uwtable
define dso_local void @set_tablefunc_size_estimates(ptr noundef %0, ptr noundef captures(none) initializes((16, 24), (200, 208)) %1) local_unnamed_addr #2 {
  %3 = alloca %struct.cost_qual_eval_context, align 8
  %4 = getelementptr inbounds nuw i8, ptr %1, i64 200
  store double 1.000000e+02, ptr %4, align 8
  %5 = getelementptr inbounds nuw i8, ptr %1, i64 296
  %6 = load ptr, ptr %5, align 8
  %7 = tail call double @clauselist_selectivity(ptr noundef %0, ptr noundef %6, i32 noundef 0, i32 noundef 0, ptr noundef null) #17
  %8 = fmul double %7, 1.000000e+02
  %9 = fcmp ogt double %8, 1.000000e+100
  %10 = fcmp uno double %8, 0.000000e+00
  %or.cond.i.i = or i1 %9, %10
  br i1 %or.cond.i.i, label %clamp_row_est.exit.i, label %11

11:                                               ; preds = %2
  %12 = fcmp ugt double %8, 1.000000e+00
  br i1 %12, label %13, label %clamp_row_est.exit.i

13:                                               ; preds = %11
  %14 = tail call double @llvm.rint.f64(double %8)
  br label %clamp_row_est.exit.i

clamp_row_est.exit.i:                             ; preds = %13, %11, %2
  %.0.i.i = phi double [ %14, %13 ], [ 1.000000e+100, %2 ], [ 1.000000e+00, %11 ]
  %15 = getelementptr inbounds nuw i8, ptr %1, i64 16
  store double %.0.i.i, ptr %15, align 8
  %16 = load ptr, ptr %5, align 8
  call void @llvm.lifetime.start.p0(i64 24, ptr nonnull %3) #17
  store ptr %0, ptr %3, align 8
  %17 = getelementptr inbounds nuw i8, ptr %3, i64 8
  %18 = getelementptr inbounds nuw i8, ptr %16, i64 4
  %.not.i.i = icmp eq ptr %16, null
  call void @llvm.memset.p0.i64(ptr noundef nonnull align 8 dereferenceable(16) %17, i8 0, i64 16, i1 false)
  br i1 %.not.i.i, label %set_baserel_size_estimates.exit, label %.lr.ph.i.i

.lr.ph.i.i:                                       ; preds = %clamp_row_est.exit.i
  %19 = getelementptr inbounds nuw i8, ptr %16, i64 16
  %20 = load i32, ptr %18, align 4
  %21 = icmp sgt i32 %20, 0
  br i1 %21, label %.lr.ph16.i.i, label %set_baserel_size_estimates.exit

.lr.ph16.i.i:                                     ; preds = %.lr.ph.i.i, %.lr.ph16.i.i
  %indvars.iv.i.i = phi i64 [ %indvars.iv.next.i.i, %.lr.ph16.i.i ], [ 0, %.lr.ph.i.i ]
  %22 = load ptr, ptr %19, align 8
  %23 = getelementptr inbounds nuw %union.ListCell, ptr %22, i64 %indvars.iv.i.i
  %24 = load ptr, ptr %23, align 8
  %25 = call zeroext i1 @cost_qual_eval_walker(ptr noundef %24, ptr noundef nonnull %3)
  %indvars.iv.next.i.i = add nuw nsw i64 %indvars.iv.i.i, 1
  %26 = load i32, ptr %18, align 4
  %27 = sext i32 %26 to i64
  %28 = icmp slt i64 %indvars.iv.next.i.i, %27
  br i1 %28, label %.lr.ph16.i.i, label %set_baserel_size_estimates.exit

set_baserel_size_estimates.exit:                  ; preds = %.lr.ph16.i.i, %clamp_row_est.exit.i, %.lr.ph.i.i
  %29 = getelementptr inbounds nuw i8, ptr %1, i64 304
  call void @llvm.memcpy.p0.p0.i64(ptr noundef nonnull align 8 dereferenceable(16) %29, ptr noundef nonnull align 8 dereferenceable(16) %17, i64 16, i1 false)
  call void @llvm.lifetime.end.p0(i64 24, ptr nonnull %3) #17
  call fastcc void @set_rel_width(ptr noundef %0, ptr noundef %1)
  ret void
}